(dp0
S'x7cedcfcb'
p1
ccopy_reg
_reconstructor
p2
(cgeddit.model
Link
p3
c__builtin__
object
p4
Ntp5
Rp6
(dp7
S'username'
p8
S'joe'
p9
sS'title'
p10
S'An example'
p11
sS'url'
p12
S'http://example.org/'
p13
sS'comments'
p14
(lp15
g2
(cgeddit.model
Comment
p16
g4
Ntp17
Rp18
(dp19
g8
S'jack'
p20
sS'content'
p21
S'Bla bla bla'
p22
sS'time'
p23
cdatetime
datetime
p24
(S'\x07\xe3\x08\x05\x04\x1d\x1e\t\xcf\xb8'
p25
tp26
Rp27
sbag2
(g16
g4
Ntp28
Rp29
(dp30
g8
g9
sg21
S'Bla bla bla, bla bla.'
p31
sg23
g24
(S'\x07\xe3\x08\x05\x04\x1d*\tq\xf8'
p32
tp33
Rp34
sbasg23
g24
(S'\x07\xe3\x08\x05\x04\x1d\x15\x08\x978'
p35
tp36
Rp37
sS'id'
p38
g1
sbsS'x172f7861'
p39
g2
(g3
g4
Ntp40
Rp41
(dp42
g8
S'annie'
p43
sg10
S'The real thing'
p44
sg12
S'http://reddit.com/'
p45
sg14
(lp46
sg23
g24
(S'\x07\xe3\x08\x05\x04\x1d2\nk\xf8'
p47
tp48
Rp49
sg38
g39
sbs.